; Function Attrs: nounwind uwtable
define range(i32 -2, 1) i32 @KINSetMAA(ptr noundef %0, i64 noundef %1) local_unnamed_addr #0 {
  %3 = icmp eq ptr %0, null
  br i1 %3, label %4, label %5

4:                                                ; preds = %2
  tail call void (ptr, i32, i32, ptr, ptr, ptr, ...) @KINProcessError(ptr noundef null, i32 noundef -1, i32 noundef 120, ptr noundef nonnull @__func__.KINSetMAA, ptr noundef nonnull @.str, ptr noundef nonnull @.str.1) #9
  br label %12

5:                                                ; preds = %2
  %6 = icmp slt i64 %1, 0
  br i1 %6, label %7, label %8

7:                                                ; preds = %5
  tail call void (ptr, i32, i32, ptr, ptr, ptr, ...) @KINProcessError(ptr noundef nonnull %0, i32 noundef -2, i32 noundef 128, ptr noundef nonnull @__func__.KINSetMAA, ptr noundef nonnull @.str, ptr noundef nonnull @.str.3) #9
  br label %12

8:                                                ; preds = %5
  %9 = getelementptr inbounds nuw i8, ptr %0, i64 56
  %10 = load i64, ptr %9, align 8, !tbaa !19
  %spec.select = tail call i64 @llvm.smin.i64(i64 %1, i64 %10)
  %11 = getelementptr inbounds nuw i8, ptr %0, i64 448
  store i64 %spec.select, ptr %11, align 8, !tbaa !20
  br label %12

12:                                               ; preds = %8, %7, %4
  %.0 = phi i32 [ -1, %4 ], [ -2, %7 ], [ 0, %8 ]
  ret i32 %.0
}